target datalayout = "e-m:e-p270:32:32-p271:32:32-p272:64:64-i64:64-i128:128-f80:128-n8:16:32:64-S128"
target triple = "x86_64-pc-linux-gnu"

%struct._address = type { i32, i32, ptr, ptr }
%struct.usbll_address_t = type { i8, i8, i8 }

@.str.216 = private unnamed_addr constant [5 x i8] c"host\00", align 1
@.str.217 = private unnamed_addr constant [10 x i8] c"broadcast\00", align 1
@.str.218 = private unnamed_addr constant [6 x i8] c"%d:%d\00", align 1
@.str.219 = private unnamed_addr constant [6 x i8] c"%d.%d\00", align 1

; Function Attrs: null_pointer_is_valid sspstrong uwtable
define internal i32 @usbll_addr_to_str(ptr noundef %0, ptr noundef %1, i32 noundef %2) #0 {
  %4 = alloca ptr, align 8
  %5 = alloca ptr, align 8
  %6 = alloca i32, align 4
  %7 = alloca ptr, align 8
  store ptr %0, ptr %4, align 8
  store ptr %1, ptr %5, align 8
  store i32 %2, ptr %6, align 4
  call void @llvm.lifetime.start.p0(i64 8, ptr %7) #11
  %8 = load ptr, ptr %4, align 8
  %9 = getelementptr inbounds nuw %struct._address, ptr %8, i32 0, i32 2
  %10 = load ptr, ptr %9, align 8
  store ptr %10, ptr %7, align 8
  %11 = load ptr, ptr %7, align 8
  %12 = getelementptr inbounds nuw %struct.usbll_address_t, ptr %11, i32 0, i32 0
  %13 = load i8, ptr %12, align 1
  %14 = zext i8 %13 to i32
  %15 = and i32 %14, 1
  %16 = icmp ne i32 %15, 0
  br i1 %16, label %17, label %22

17:                                               ; preds = %3
  %18 = load ptr, ptr %5, align 8
  %19 = load i32, ptr %6, align 4
  %20 = sext i32 %19 to i64
  %21 = call i64 @g_strlcpy(ptr noundef %18, ptr noundef @.str.216, i64 noundef %20)
  br label %73

22:                                               ; preds = %3
  %23 = load ptr, ptr %7, align 8
  %24 = getelementptr inbounds nuw %struct.usbll_address_t, ptr %23, i32 0, i32 0
  %25 = load i8, ptr %24, align 1
  %26 = zext i8 %25 to i32
  %27 = and i32 %26, 4
  %28 = icmp ne i32 %27, 0
  br i1 %28, label %29, label %34

29:                                               ; preds = %22
  %30 = load ptr, ptr %5, align 8
  %31 = load i32, ptr %6, align 4
  %32 = sext i32 %31 to i64
  %33 = call i64 @g_strlcpy(ptr noundef %30, ptr noundef @.str.217, i64 noundef %32)
  br label %72

34:                                               ; preds = %22
  %35 = load ptr, ptr %7, align 8
  %36 = getelementptr inbounds nuw %struct.usbll_address_t, ptr %35, i32 0, i32 0
  %37 = load i8, ptr %36, align 1
  %38 = zext i8 %37 to i32
  %39 = and i32 %38, 2
  %40 = icmp ne i32 %39, 0
  br i1 %40, label %41, label %56

41:                                               ; preds = %34
  %42 = load ptr, ptr %5, align 8
  %43 = load i32, ptr %6, align 4
  %44 = sext i32 %43 to i64
  %45 = load ptr, ptr %5, align 8
  %46 = call i64 @llvm.objectsize.i64.p0(ptr %45, i1 false, i1 true, i1 true)
  %47 = load ptr, ptr %7, align 8
  %48 = getelementptr inbounds nuw %struct.usbll_address_t, ptr %47, i32 0, i32 1
  %49 = load i8, ptr %48, align 1
  %50 = zext i8 %49 to i32
  %51 = load ptr, ptr %7, align 8
  %52 = getelementptr inbounds nuw %struct.usbll_address_t, ptr %51, i32 0, i32 2
  %53 = load i8, ptr %52, align 1
  %54 = zext i8 %53 to i32
  %55 = call i32 (ptr, i64, i32, i64, ptr, ...) @__snprintf_chk(ptr noundef %42, i64 noundef %44, i32 noundef 2, i64 noundef %46, ptr noundef @.str.218, i32 noundef %50, i32 noundef %54)
  br label %71

56:                                               ; preds = %34
  %57 = load ptr, ptr %5, align 8
  %58 = load i32, ptr %6, align 4
  %59 = sext i32 %58 to i64
  %60 = load ptr, ptr %5, align 8
  %61 = call i64 @llvm.objectsize.i64.p0(ptr %60, i1 false, i1 true, i1 true)
  %62 = load ptr, ptr %7, align 8
  %63 = getelementptr inbounds nuw %struct.usbll_address_t, ptr %62, i32 0, i32 1
  %64 = load i8, ptr %63, align 1
  %65 = zext i8 %64 to i32
  %66 = load ptr, ptr %7, align 8
  %67 = getelementptr inbounds nuw %struct.usbll_address_t, ptr %66, i32 0, i32 2
  %68 = load i8, ptr %67, align 1
  %69 = zext i8 %68 to i32
  %70 = call i32 (ptr, i64, i32, i64, ptr, ...) @__snprintf_chk(ptr noundef %57, i64 noundef %59, i32 noundef 2, i64 noundef %61, ptr noundef @.str.219, i32 noundef %65, i32 noundef %69)
  br label %71

71:                                               ; preds = %56, %41
  br label %72

72:                                               ; preds = %71, %29
  br label %73

73:                                               ; preds = %72, %17
  %74 = load ptr, ptr %5, align 8
  %75 = call i64 @strlen(ptr noundef %74) #12
  %76 = add i64 %75, 1
  %77 = trunc i64 %76 to i32
  call void @llvm.lifetime.end.p0(i64 8, ptr %7) #11
  ret i32 %77
}