; Function Attrs: null_pointer_is_valid sspstrong uwtable
define internal i32 @usbll_addr_to_str(ptr noundef readonly captures(none) %0, ptr noundef %1, i32 noundef %2) #2 {
  %4 = getelementptr inbounds nuw i8, ptr %0, i64 8
  %5 = load ptr, ptr %4, align 8
  %6 = load i8, ptr %5, align 1
  %7 = zext i8 %6 to i32
  %8 = and i32 %7, 1
  %.not = icmp eq i32 %8, 0
  br i1 %.not, label %12, label %9

9:                                                ; preds = %3
  %10 = sext i32 %2 to i64
  %11 = tail call i64 @g_strlcpy(ptr noundef %1, ptr noundef nonnull @.str.216, i64 noundef %10)
  br label %30

12:                                               ; preds = %3
  %13 = and i32 %7, 4
  %.not18 = icmp eq i32 %13, 0
  br i1 %.not18, label %17, label %14

14:                                               ; preds = %12
  %15 = sext i32 %2 to i64
  %16 = tail call i64 @g_strlcpy(ptr noundef %1, ptr noundef nonnull @.str.217, i64 noundef %15)
  br label %30

17:                                               ; preds = %12
  %18 = and i32 %7, 2
  %.not19 = icmp eq i32 %18, 0
  %19 = sext i32 %2 to i64
  %20 = getelementptr inbounds nuw i8, ptr %5, i64 1
  %21 = load i8, ptr %20, align 1
  %22 = zext i8 %21 to i32
  %23 = getelementptr inbounds nuw i8, ptr %5, i64 2
  %24 = load i8, ptr %23, align 1
  %25 = zext i8 %24 to i32
  br i1 %.not19, label %28, label %26

26:                                               ; preds = %17
  %27 = tail call i32 (ptr, i64, i32, i64, ptr, ...) @__snprintf_chk(ptr noundef %1, i64 noundef %19, i32 noundef 2, i64 noundef -1, ptr noundef nonnull @.str.218, i32 noundef %22, i32 noundef %25)
  br label %30

28:                                               ; preds = %17
  %29 = tail call i32 (ptr, i64, i32, i64, ptr, ...) @__snprintf_chk(ptr noundef %1, i64 noundef %19, i32 noundef 2, i64 noundef -1, ptr noundef nonnull @.str.219, i32 noundef %22, i32 noundef %25)
  br label %30

30:                                               ; preds = %14, %28, %26, %9
  %31 = tail call i64 @strlen(ptr noundef %1) #13
  %32 = trunc i64 %31 to i32
  %33 = add i32 %32, 1
  ret i32 %33
}